target datalayout = "e-m:e-p270:32:32-p271:32:32-p272:64:64-i64:64-i128:128-f80:128-n8:16:32:64-S128"
target triple = "x86_64-pc-linux-gnu"

%"class.boost::log::v2_mt_posix::sinks::text_multifile_backend" = type { ptr }
%"struct.boost::log::v2_mt_posix::sinks::text_multifile_backend::implementation" = type <{ %"class.boost::log::v2_mt_posix::aux::light_function", %"class.boost::filesystem::path", %"class.boost::filesystem::basic_ofstream", i32, [4 x i8] }>
%"class.boost::log::v2_mt_posix::aux::light_function" = type { ptr }
%"class.boost::filesystem::path" = type { %"class.std::__cxx11::basic_string" }
%"class.std::__cxx11::basic_string" = type { %"struct.std::__cxx11::basic_string<char>::_Alloc_hider", i64, %union.anon }
%"struct.std::__cxx11::basic_string<char>::_Alloc_hider" = type { ptr }
%union.anon = type { i64, [8 x i8] }
%"class.boost::filesystem::basic_ofstream" = type { %"class.std::basic_ofstream.base", %"class.std::basic_ios" }
%"class.std::basic_ofstream.base" = type { %"class.std::basic_ostream.base", %"class.std::basic_filebuf" }
%"class.std::basic_ostream.base" = type { ptr }
%"class.std::basic_filebuf" = type { %"class.std::basic_streambuf", %union.pthread_mutex_t, %"class.std::__basic_file", i32, %struct.__mbstate_t, %struct.__mbstate_t, %struct.__mbstate_t, ptr, i64, i8, i8, i8, i8, ptr, ptr, i8, ptr, ptr, i64, ptr, ptr }
%"class.std::basic_streambuf" = type { ptr, ptr, ptr, ptr, ptr, ptr, ptr, %"class.std::locale" }
%"class.std::locale" = type { ptr }
%union.pthread_mutex_t = type { %struct.__pthread_mutex_s }
%struct.__pthread_mutex_s = type { i32, i32, i32, i32, i32, i16, i16, %struct.__pthread_internal_list }
%struct.__pthread_internal_list = type { ptr, ptr }
%"class.std::__basic_file" = type <{ ptr, i8, [7 x i8] }>
%struct.__mbstate_t = type { i32, %union.anon.1 }
%union.anon.1 = type { i32 }
%"class.std::basic_ios" = type { %"class.std::ios_base", ptr, i8, i8, ptr, ptr, ptr, ptr }
%"class.std::ios_base" = type { ptr, i64, i64, i32, i32, i32, ptr, %"struct.std::ios_base::_Words", [8 x %"struct.std::ios_base::_Words"], i32, ptr, %"class.std::locale" }
%"struct.std::ios_base::_Words" = type { ptr, i64 }
%"struct.boost::log::v2_mt_posix::aux::light_function<boost::filesystem::path (const boost::log::v2_mt_posix::record_view &)>::impl_base" = type { ptr, ptr, ptr }

; Function Attrs: mustprogress nounwind uwtable
define linkonce_odr hidden void @_ZN5boost3log11v2_mt_posix3aux14light_functionIFNS_10filesystem4pathERKNS1_11record_viewEEE5clearEv(ptr noundef nonnull align 8 dereferenceable(8) %0) #2 comdat align 2 personality ptr @__gxx_personality_v0 {
  %2 = alloca ptr, align 8
  store ptr %0, ptr %2, align 8, !tbaa !3
  %3 = load ptr, ptr %2, align 8
  %4 = getelementptr inbounds nuw %"class.boost::log::v2_mt_posix::aux::light_function", ptr %3, i32 0, i32 0
  %5 = load ptr, ptr %4, align 8, !tbaa !30
  %6 = icmp ne ptr %5, null
  br i1 %6, label %7, label %16

7:                                                ; preds = %1
  %8 = getelementptr inbounds nuw %"class.boost::log::v2_mt_posix::aux::light_function", ptr %3, i32 0, i32 0
  %9 = load ptr, ptr %8, align 8, !tbaa !30
  %10 = getelementptr inbounds nuw %"struct.boost::log::v2_mt_posix::aux::light_function<boost::filesystem::path (const boost::log::v2_mt_posix::record_view &)>::impl_base", ptr %9, i32 0, i32 2
  %11 = load ptr, ptr %10, align 8, !tbaa !50
  %12 = getelementptr inbounds nuw %"class.boost::log::v2_mt_posix::aux::light_function", ptr %3, i32 0, i32 0
  %13 = load ptr, ptr %12, align 8, !tbaa !30
  invoke void %11(ptr noundef %13)
          to label %14 unwind label %17

14:                                               ; preds = %7
  %15 = getelementptr inbounds nuw %"class.boost::log::v2_mt_posix::aux::light_function", ptr %3, i32 0, i32 0
  store ptr null, ptr %15, align 8, !tbaa !30
  br label %16

16:                                               ; preds = %14, %1
  ret void

17:                                               ; preds = %7
  %18 = landingpad { ptr, i32 }
          catch ptr null
  %19 = extractvalue { ptr, i32 } %18, 0
  call void @__clang_call_terminate(ptr %19) #17
  unreachable
}

; Function Attrs: mustprogress nounwind uwtable
define linkonce_odr hidden void @_ZN5boost3log11v2_mt_posix3aux14light_functionIFNS_10filesystem4pathERKNS1_11record_viewEEED2Ev(ptr noundef nonnull align 8 dereferenceable(8) %0) unnamed_addr #2 comdat align 2 {
  %2 = alloca ptr, align 8
  store ptr %0, ptr %2, align 8, !tbaa !3
  %3 = load ptr, ptr %2, align 8
  call void @_ZN5boost3log11v2_mt_posix3aux14light_functionIFNS_10filesystem4pathERKNS1_11record_viewEEE5clearEv(ptr noundef nonnull align 8 dereferenceable(8) %3) #16
  ret void
}

; Function Attrs: mustprogress nounwind uwtable
define linkonce_odr hidden void @_ZN5boost3log11v2_mt_posix3aux14light_functionIFNS_10filesystem4pathERKNS1_11record_viewEEE4swapERSA_(ptr noundef nonnull align 8 dereferenceable(8) %0, ptr noundef nonnull align 8 dereferenceable(8) %1) #2 comdat align 2 {
  %3 = alloca ptr, align 8
  %4 = alloca ptr, align 8
  %5 = alloca ptr, align 8
  store ptr %0, ptr %3, align 8, !tbaa !3
  store ptr %1, ptr %4, align 8, !tbaa !3
  %6 = load ptr, ptr %3, align 8
  call void @llvm.lifetime.start.p0(i64 8, ptr %5) #16
  %7 = getelementptr inbounds nuw %"class.boost::log::v2_mt_posix::aux::light_function", ptr %6, i32 0, i32 0
  %8 = load ptr, ptr %7, align 8, !tbaa !30
  store ptr %8, ptr %5, align 8, !tbaa !3
  %9 = load ptr, ptr %4, align 8, !tbaa !3
  %10 = getelementptr inbounds nuw %"class.boost::log::v2_mt_posix::aux::light_function", ptr %9, i32 0, i32 0
  %11 = load ptr, ptr %10, align 8, !tbaa !30
  %12 = getelementptr inbounds nuw %"class.boost::log::v2_mt_posix::aux::light_function", ptr %6, i32 0, i32 0
  store ptr %11, ptr %12, align 8, !tbaa !30
  %13 = load ptr, ptr %5, align 8, !tbaa !3
  %14 = load ptr, ptr %4, align 8, !tbaa !3
  %15 = getelementptr inbounds nuw %"class.boost::log::v2_mt_posix::aux::light_function", ptr %14, i32 0, i32 0
  store ptr %13, ptr %15, align 8, !tbaa !30
  call void @llvm.lifetime.end.p0(i64 8, ptr %5) #16
  ret void
}

; Function Attrs: mustprogress uwtable
define linkonce_odr hidden void @_ZN5boost3log11v2_mt_posix3aux14light_functionIFNS_10filesystem4pathERKNS1_11record_viewEEEC2ERKSA_(ptr noundef nonnull align 8 dereferenceable(8) %0, ptr noundef nonnull align 8 dereferenceable(8) %1) unnamed_addr #3 comdat align 2 {
  %3 = alloca ptr, align 8
  %4 = alloca ptr, align 8
  store ptr %0, ptr %3, align 8, !tbaa !3
  store ptr %1, ptr %4, align 8, !tbaa !3
  %5 = load ptr, ptr %3, align 8
  %6 = load ptr, ptr %4, align 8, !tbaa !3
  %7 = getelementptr inbounds nuw %"class.boost::log::v2_mt_posix::aux::light_function", ptr %6, i32 0, i32 0
  %8 = load ptr, ptr %7, align 8, !tbaa !30
  %9 = icmp ne ptr %8, null
  br i1 %9, label %10, label %21

10:                                               ; preds = %2
  %11 = load ptr, ptr %4, align 8, !tbaa !3
  %12 = getelementptr inbounds nuw %"class.boost::log::v2_mt_posix::aux::light_function", ptr %11, i32 0, i32 0
  %13 = load ptr, ptr %12, align 8, !tbaa !30
  %14 = getelementptr inbounds nuw %"struct.boost::log::v2_mt_posix::aux::light_function<boost::filesystem::path (const boost::log::v2_mt_posix::record_view &)>::impl_base", ptr %13, i32 0, i32 1
  %15 = load ptr, ptr %14, align 8, !tbaa !60
  %16 = load ptr, ptr %4, align 8, !tbaa !3
  %17 = getelementptr inbounds nuw %"class.boost::log::v2_mt_posix::aux::light_function", ptr %16, i32 0, i32 0
  %18 = load ptr, ptr %17, align 8, !tbaa !30
  %19 = call noundef ptr %15(ptr noundef %18)
  %20 = getelementptr inbounds nuw %"class.boost::log::v2_mt_posix::aux::light_function", ptr %5, i32 0, i32 0
  store ptr %19, ptr %20, align 8, !tbaa !30
  br label %23

21:                                               ; preds = %2
  %22 = getelementptr inbounds nuw %"class.boost::log::v2_mt_posix::aux::light_function", ptr %5, i32 0, i32 0
  store ptr null, ptr %22, align 8, !tbaa !30
  br label %23

23:                                               ; preds = %21, %10
  ret void
}

; Function Attrs: mustprogress uwtable
define linkonce_odr hidden noundef nonnull align 8 dereferenceable(8) ptr @_ZN5boost3log11v2_mt_posix3aux14light_functionIFNS_10filesystem4pathERKNS1_11record_viewEEEaSERKSA_(ptr noundef nonnull align 8 dereferenceable(8) %0, ptr noundef nonnull align 8 dereferenceable(8) %1) #3 comdat align 2 {
  %3 = alloca ptr, align 8
  %4 = alloca ptr, align 8
  %5 = alloca %"class.boost::log::v2_mt_posix::aux::light_function", align 8
  store ptr %0, ptr %3, align 8, !tbaa !3
  store ptr %1, ptr %4, align 8, !tbaa !3
  %6 = load ptr, ptr %3, align 8
  call void @llvm.lifetime.start.p0(i64 8, ptr %5) #16
  %7 = load ptr, ptr %4, align 8, !tbaa !3
  call void @_ZN5boost3log11v2_mt_posix3aux14light_functionIFNS_10filesystem4pathERKNS1_11record_viewEEEC2ERKSA_(ptr noundef nonnull align 8 dereferenceable(8) %5, ptr noundef nonnull align 8 dereferenceable(8) %7)
  call void @_ZN5boost3log11v2_mt_posix3aux14light_functionIFNS_10filesystem4pathERKNS1_11record_viewEEE4swapERSA_(ptr noundef nonnull align 8 dereferenceable(8) %6, ptr noundef nonnull align 8 dereferenceable(8) %5) #16
  call void @_ZN5boost3log11v2_mt_posix3aux14light_functionIFNS_10filesystem4pathERKNS1_11record_viewEEED2Ev(ptr noundef nonnull align 8 dereferenceable(8) %5) #16
  call void @llvm.lifetime.end.p0(i64 8, ptr %5) #16
  ret ptr %6
}

; Function Attrs: mustprogress uwtable
define void @_ZN5boost3log11v2_mt_posix5sinks22text_multifile_backend31set_file_name_composer_internalERKNS1_3aux14light_functionIFNS_10filesystem4pathERKNS1_11record_viewEEEE(ptr noundef nonnull align 8 dereferenceable(8) %0, ptr noundef nonnull align 8 dereferenceable(8) %1) #3 align 2 {
  %3 = alloca ptr, align 8
  %4 = alloca ptr, align 8
  store ptr %0, ptr %3, align 8, !tbaa !3
  store ptr %1, ptr %4, align 8, !tbaa !3
  %5 = load ptr, ptr %3, align 8
  %6 = load ptr, ptr %4, align 8, !tbaa !3
  %7 = getelementptr inbounds nuw %"class.boost::log::v2_mt_posix::sinks::text_multifile_backend", ptr %5, i32 0, i32 0
  %8 = load ptr, ptr %7, align 8, !tbaa !9
  %9 = getelementptr inbounds nuw %"struct.boost::log::v2_mt_posix::sinks::text_multifile_backend::implementation", ptr %8, i32 0, i32 0
  %10 = call noundef nonnull align 8 dereferenceable(8) ptr @_ZN5boost3log11v2_mt_posix3aux14light_functionIFNS_10filesystem4pathERKNS1_11record_viewEEEaSERKSA_(ptr noundef nonnull align 8 dereferenceable(8) %9, ptr noundef nonnull align 8 dereferenceable(8) %6)
  ret void
}