; Function Attrs: mustprogress uwtable
define void @_ZN5boost3log11v2_mt_posix5sinks22text_multifile_backend31set_file_name_composer_internalERKNS1_3aux14light_functionIFNS_10filesystem4pathERKNS1_11record_viewEEEE(ptr nocapture noundef nonnull readonly align 8 dereferenceable(8) %0, ptr nocapture noundef nonnull readonly align 8 dereferenceable(8) %1) local_unnamed_addr #3 align 2 personality ptr @__gxx_personality_v0 {
  %3 = load ptr, ptr %0, align 8, !tbaa !31
  %4 = load ptr, ptr %1, align 8, !tbaa !3
  %.not.i.i = icmp eq ptr %4, null
  br i1 %.not.i.i, label %_ZN5boost3log11v2_mt_posix3aux14light_functionIFNS_10filesystem4pathERKNS1_11record_viewEEEC2ERKSA_.exit.i, label %5

5:                                                ; preds = %2
  %6 = getelementptr inbounds nuw i8, ptr %4, i64 8
  %7 = load ptr, ptr %6, align 8, !tbaa !35
  %8 = tail call noundef ptr %7(ptr noundef nonnull %4)
  br label %_ZN5boost3log11v2_mt_posix3aux14light_functionIFNS_10filesystem4pathERKNS1_11record_viewEEEC2ERKSA_.exit.i

_ZN5boost3log11v2_mt_posix3aux14light_functionIFNS_10filesystem4pathERKNS1_11record_viewEEEC2ERKSA_.exit.i: ; preds = %5, %2
  %storemerge.i.i = phi ptr [ %8, %5 ], [ null, %2 ]
  %9 = load ptr, ptr %3, align 8, !tbaa !3
  store ptr %storemerge.i.i, ptr %3, align 8, !tbaa !3
  %.not.i.i.i = icmp eq ptr %9, null
  br i1 %.not.i.i.i, label %_ZN5boost3log11v2_mt_posix3aux14light_functionIFNS_10filesystem4pathERKNS1_11record_viewEEEaSERKSA_.exit, label %10

10:                                               ; preds = %_ZN5boost3log11v2_mt_posix3aux14light_functionIFNS_10filesystem4pathERKNS1_11record_viewEEEC2ERKSA_.exit.i
  %11 = getelementptr inbounds nuw i8, ptr %9, i64 16
  %12 = load ptr, ptr %11, align 8, !tbaa !14
  invoke void %12(ptr noundef nonnull %9)
          to label %_ZN5boost3log11v2_mt_posix3aux14light_functionIFNS_10filesystem4pathERKNS1_11record_viewEEEaSERKSA_.exit unwind label %13

13:                                               ; preds = %10
  %14 = landingpad { ptr, i32 }
          catch ptr null
  %15 = extractvalue { ptr, i32 } %14, 0
  tail call void @__clang_call_terminate(ptr %15) #19
  unreachable

_ZN5boost3log11v2_mt_posix3aux14light_functionIFNS_10filesystem4pathERKNS1_11record_viewEEEaSERKSA_.exit: ; preds = %_ZN5boost3log11v2_mt_posix3aux14light_functionIFNS_10filesystem4pathERKNS1_11record_viewEEEC2ERKSA_.exit.i, %10
  ret void
}